target datalayout = "e-m:e-p270:32:32-p271:32:32-p272:64:64-i64:64-i128:128-f80:128-n8:16:32:64-S128"
target triple = "x86_64-pc-linux-gnu"

%struct.H5G_iter_rm_t = type { ptr, ptr, ptr }
%struct.H5O_loc_t = type { ptr, i64, i8 }

@H5G_init_g = external global i8, align 1
@H5_libterm_g = external global i8, align 1
@.str = private unnamed_addr constant [104 x i8] c"generated/home/dtcxzyw/WorkSpace/Projects/compilers/llvm-opt-benchmark/bench/hdf5/hdf5/src/H5Gcompact.c\00", align 1
@H5E_SYM_g = external global i64, align 8
@__func__.H5G__compact_remove = private unnamed_addr constant [20 x i8] c"H5G__compact_remove\00", align 1
@H5E_CANTDELETE_g = external global i64, align 8
@.str.5 = private unnamed_addr constant [30 x i8] c"unable to delete link message\00", align 1

; Function Attrs: nounwind uwtable
define i32 @H5G__compact_remove(ptr noundef %0, ptr noundef %1, ptr noundef %2) #0 {
  %4 = alloca ptr, align 8
  %5 = alloca ptr, align 8
  %6 = alloca ptr, align 8
  %7 = alloca %struct.H5G_iter_rm_t, align 8
  %8 = alloca i32, align 4
  %9 = alloca i8, align 1
  store ptr %0, ptr %4, align 8, !tbaa !3
  store ptr %1, ptr %5, align 8, !tbaa !38
  store ptr %2, ptr %6, align 8, !tbaa !20
  call void @llvm.lifetime.start.p0(i64 24, ptr %7) #8
  call void @llvm.lifetime.start.p0(i64 4, ptr %8) #8
  store i32 0, ptr %8, align 4, !tbaa !10
  call void @llvm.lifetime.start.p0(i64 1, ptr %9) #8
  store i8 0, ptr %9, align 1, !tbaa !12
  %10 = load i8, ptr @H5G_init_g, align 1, !tbaa !12, !range !14, !noundef !15
  %11 = trunc i8 %10 to i1
  br i1 %11, label %16, label %12

12:                                               ; preds = %3
  %13 = load i8, ptr @H5_libterm_g, align 1, !tbaa !12, !range !14, !noundef !15
  %14 = trunc i8 %13 to i1
  %15 = xor i1 %14, true
  br label %16

16:                                               ; preds = %12, %3
  %17 = phi i1 [ true, %3 ], [ %15, %12 ]
  %18 = xor i1 %17, true
  %19 = xor i1 %18, true
  %20 = zext i1 %19 to i32
  %21 = sext i32 %20 to i64
  %22 = call i64 @llvm.expect.i64(i64 %21, i64 1)
  %23 = icmp ne i64 %22, 0
  br i1 %23, label %24, label %57

24:                                               ; preds = %16
  %25 = load ptr, ptr %4, align 8, !tbaa !3
  %26 = getelementptr inbounds nuw %struct.H5O_loc_t, ptr %25, i32 0, i32 0
  %27 = load ptr, ptr %26, align 8, !tbaa !40
  %28 = getelementptr inbounds nuw %struct.H5G_iter_rm_t, ptr %7, i32 0, i32 0
  store ptr %27, ptr %28, align 8, !tbaa !43
  %29 = load ptr, ptr %5, align 8, !tbaa !38
  %30 = getelementptr inbounds nuw %struct.H5G_iter_rm_t, ptr %7, i32 0, i32 1
  store ptr %29, ptr %30, align 8, !tbaa !45
  %31 = load ptr, ptr %6, align 8, !tbaa !20
  %32 = getelementptr inbounds nuw %struct.H5G_iter_rm_t, ptr %7, i32 0, i32 2
  store ptr %31, ptr %32, align 8, !tbaa !46
  %33 = load ptr, ptr %4, align 8, !tbaa !3
  %34 = call i32 @H5O_msg_remove_op(ptr noundef %33, i32 noundef 6, i32 noundef -2, ptr noundef @H5G__compact_remove_common_cb, ptr noundef %7, i1 noundef zeroext true)
  %35 = icmp slt i32 %34, 0
  br i1 %35, label %36, label %55

36:                                               ; preds = %24
  br label %37

37:                                               ; preds = %36
  br label %38

38:                                               ; preds = %37
  br label %39

39:                                               ; preds = %38
  %40 = load i64, ptr @H5E_SYM_g, align 8, !tbaa !16
  %41 = load i64, ptr @H5E_CANTDELETE_g, align 8, !tbaa !16
  %42 = call i32 (ptr, ptr, i32, i64, i64, ptr, ...) @H5E_printf_stack(ptr noundef @.str, ptr noundef @__func__.H5G__compact_remove, i32 noundef 298, i64 noundef %40, i64 noundef %41, ptr noundef @.str.5)
  br label %43

43:                                               ; preds = %39
  br label %44

44:                                               ; preds = %43
  store i8 1, ptr %9, align 1, !tbaa !12
  %45 = load i8, ptr %9, align 1, !tbaa !12, !range !14, !noundef !15
  %46 = trunc i8 %45 to i1
  %47 = zext i1 %46 to i8
  store i8 %47, ptr %9, align 1, !tbaa !12
  br label %48

48:                                               ; preds = %44
  br label %49

49:                                               ; preds = %48
  br label %50

50:                                               ; preds = %49
  store i32 -1, ptr %8, align 4, !tbaa !10
  br label %56

51:                                               ; No predecessors!
  br label %52

52:                                               ; preds = %51
  br label %53

53:                                               ; preds = %52
  br label %54

54:                                               ; preds = %53
  br label %55

55:                                               ; preds = %54, %24
  br label %56

56:                                               ; preds = %55, %50
  br label %57

57:                                               ; preds = %56, %16
  %58 = load i32, ptr %8, align 4, !tbaa !10
  call void @llvm.lifetime.end.p0(i64 1, ptr %9) #8
  call void @llvm.lifetime.end.p0(i64 4, ptr %8) #8
  call void @llvm.lifetime.end.p0(i64 24, ptr %7) #8
  ret i32 %58
}