; Function Attrs: nounwind uwtable
define range(i32 -1, 1) i32 @H5G__compact_remove(ptr noundef %0, ptr noundef %1, ptr noundef %2) local_unnamed_addr #0 {
  %4 = alloca %struct.H5G_iter_rm_t, align 8
  call void @llvm.lifetime.start.p0(i64 24, ptr nonnull %4) #8
  %5 = load i8, ptr @H5G_init_g, align 1, !tbaa !3, !range !7, !noundef !8
  %6 = trunc nuw i8 %5 to i1
  %7 = load i8, ptr @H5_libterm_g, align 1, !range !7
  %8 = trunc nuw i8 %7 to i1
  %9 = xor i1 %8, true
  %10 = select i1 %6, i1 true, i1 %9
  br i1 %10, label %11, label %21, !prof !9

11:                                               ; preds = %3
  %12 = load ptr, ptr %0, align 8, !tbaa !29
  store ptr %12, ptr %4, align 8, !tbaa !32
  %13 = getelementptr inbounds nuw i8, ptr %4, i64 8
  store ptr %1, ptr %13, align 8, !tbaa !35
  %14 = getelementptr inbounds nuw i8, ptr %4, i64 16
  store ptr %2, ptr %14, align 8, !tbaa !36
  %15 = call i32 @H5O_msg_remove_op(ptr noundef nonnull %0, i32 noundef 6, i32 noundef -2, ptr noundef nonnull @H5G__compact_remove_common_cb, ptr noundef nonnull %4, i1 noundef zeroext true) #8
  %16 = icmp slt i32 %15, 0
  br i1 %16, label %17, label %21

17:                                               ; preds = %11
  %18 = load i64, ptr @H5E_SYM_g, align 8, !tbaa !10
  %19 = load i64, ptr @H5E_CANTDELETE_g, align 8, !tbaa !10
  %20 = call i32 (ptr, ptr, i32, i64, i64, ptr, ...) @H5E_printf_stack(ptr noundef nonnull @.str, ptr noundef nonnull @__func__.H5G__compact_remove, i32 noundef 298, i64 noundef %18, i64 noundef %19, ptr noundef nonnull @.str.5) #8
  br label %21

21:                                               ; preds = %17, %11, %3
  %.0 = phi i32 [ -1, %17 ], [ 0, %11 ], [ 0, %3 ]
  call void @llvm.lifetime.end.p0(i64 24, ptr nonnull %4) #8
  ret i32 %.0
}